; Function Attrs: nounwind uwtable
define hidden void @zim_InternalIterator_next(ptr nocapture noundef readonly %0, ptr nocapture readnone %1) #0 {
  %3 = getelementptr inbounds i8, ptr %0, i64 44
  %4 = load i32, ptr %3, align 4
  %.not = icmp eq i32 %4, 0
  br i1 %.not, label %6, label %5

5:                                                ; preds = %2
  tail call void @zend_wrong_parameters_none_error() #9
  br label %32

6:                                                ; preds = %2
  %7 = getelementptr inbounds i8, ptr %0, i64 32
  %.val = load ptr, ptr %7, align 8
  %8 = getelementptr inbounds i8, ptr %.val, i64 56
  %9 = load ptr, ptr %8, align 8
  %.not.i = icmp eq ptr %9, null
  br i1 %.not.i, label %10, label %zend_internal_iterator_fetch.exit

10:                                               ; preds = %6
  tail call void (ptr, ptr, ...) @zend_throw_error(ptr noundef null, ptr noundef nonnull @.str.8) #9
  %11 = load ptr, ptr getelementptr inbounds (%struct._zend_executor_globals, ptr @executor_globals, i64 0, i32 50), align 8
  %12 = icmp ne ptr %11, null
  tail call void @llvm.assume(i1 %12)
  br label %32

zend_internal_iterator_fetch.exit:                ; preds = %6
  %13 = getelementptr inbounds i8, ptr %.val, i64 64
  %14 = load i8, ptr %13, align 8
  %15 = and i8 %14, 1
  %.not.i8 = icmp eq i8 %15, 0
  br i1 %.not.i8, label %16, label %zend_internal_iterator_ensure_rewound.exit

16:                                               ; preds = %zend_internal_iterator_fetch.exit
  store i8 1, ptr %13, align 8
  %17 = getelementptr inbounds i8, ptr %9, i64 72
  %18 = load ptr, ptr %17, align 8
  %19 = getelementptr inbounds i8, ptr %18, i64 40
  %20 = load ptr, ptr %19, align 8
  %.not7.i = icmp eq ptr %20, null
  br i1 %.not7.i, label %zend_internal_iterator_ensure_rewound.exit, label %21

21:                                               ; preds = %16
  tail call void %20(ptr noundef nonnull %9) #9
  %22 = load ptr, ptr getelementptr inbounds (%struct._zend_executor_globals, ptr @executor_globals, i64 0, i32 50), align 8
  %.not8.i = icmp eq ptr %22, null
  br i1 %.not8.i, label %.zend_internal_iterator_ensure_rewound.exit_crit_edge, label %32

.zend_internal_iterator_ensure_rewound.exit_crit_edge: ; preds = %21
  %.pre = load ptr, ptr %8, align 8
  br label %zend_internal_iterator_ensure_rewound.exit

zend_internal_iterator_ensure_rewound.exit:       ; preds = %.zend_internal_iterator_ensure_rewound.exit_crit_edge, %16, %zend_internal_iterator_fetch.exit
  %23 = phi ptr [ %.pre, %.zend_internal_iterator_ensure_rewound.exit_crit_edge ], [ %9, %16 ], [ %9, %zend_internal_iterator_fetch.exit ]
  %24 = getelementptr inbounds i8, ptr %23, i64 80
  %25 = load i64, ptr %24, align 8
  %26 = add i64 %25, 1
  store i64 %26, ptr %24, align 8
  %27 = load ptr, ptr %8, align 8
  %28 = getelementptr inbounds i8, ptr %27, i64 72
  %29 = load ptr, ptr %28, align 8
  %30 = getelementptr inbounds i8, ptr %29, i64 32
  %31 = load ptr, ptr %30, align 8
  tail call void %31(ptr noundef %27) #9
  br label %32

32:                                               ; preds = %21, %zend_internal_iterator_ensure_rewound.exit, %10, %5
  ret void
}